; Function Attrs: mustprogress nofree nounwind willreturn memory(write, argmem: readwrite) uwtable
define void @XYZ2RGB(ptr dead_on_unwind noalias writable writeonly sret(%struct.rgb_struct) align 8 captures(none) initializes((0, 24)) %0, ptr noundef readonly byval(%struct.xyz_struct) align 8 captures(none) %1) local_unnamed_addr #1 {
  %3 = load double, ptr %1, align 8, !tbaa !10
  %4 = fdiv double %3, 1.000000e+02
  %5 = getelementptr inbounds nuw i8, ptr %1, i64 8
  %6 = load double, ptr %5, align 8, !tbaa !12
  %7 = fdiv double %6, 1.000000e+02
  %8 = getelementptr inbounds nuw i8, ptr %1, i64 16
  %9 = load double, ptr %8, align 8, !tbaa !13
  %10 = fdiv double %9, 1.000000e+02
  %11 = fmul double %7, -1.537200e+00
  %12 = tail call double @llvm.fmuladd.f64(double %4, double 3.240600e+00, double %11)
  %13 = tail call double @llvm.fmuladd.f64(double %10, double -4.986000e-01, double %12)
  %14 = fmul double %7, 1.875800e+00
  %15 = tail call double @llvm.fmuladd.f64(double %4, double 0xBFEF013A92A30553, double %14)
  %16 = tail call double @llvm.fmuladd.f64(double %10, double 4.150000e-02, double %15)
  %17 = fmul double %7, -2.040000e-01
  %18 = tail call double @llvm.fmuladd.f64(double %4, double 5.570000e-02, double %17)
  %19 = tail call double @llvm.fmuladd.f64(double %10, double 1.057000e+00, double %18)
  %20 = fcmp ogt double %13, 3.130800e-03
  br i1 %20, label %21, label %24

21:                                               ; preds = %2
  %22 = tail call double @pow(double noundef %13, double noundef 0x3FDAAAAAAAAAAAAB) #19, !tbaa !18
  %23 = tail call double @llvm.fmuladd.f64(double %22, double 1.055000e+00, double -5.500000e-02)
  br label %26

24:                                               ; preds = %2
  %25 = fmul double %13, 1.292000e+01
  br label %26

26:                                               ; preds = %24, %21
  %.034 = phi double [ %23, %21 ], [ %25, %24 ]
  %27 = fcmp ogt double %16, 3.130800e-03
  br i1 %27, label %28, label %31

28:                                               ; preds = %26
  %29 = tail call double @pow(double noundef %16, double noundef 0x3FDAAAAAAAAAAAAB) #19, !tbaa !18
  %30 = tail call double @llvm.fmuladd.f64(double %29, double 1.055000e+00, double -5.500000e-02)
  br label %33

31:                                               ; preds = %26
  %32 = fmul double %16, 1.292000e+01
  br label %33

33:                                               ; preds = %31, %28
  %.033 = phi double [ %30, %28 ], [ %32, %31 ]
  %34 = fcmp ogt double %19, 3.130800e-03
  br i1 %34, label %35, label %38

35:                                               ; preds = %33
  %36 = tail call double @pow(double noundef %19, double noundef 0x3FDAAAAAAAAAAAAB) #19, !tbaa !18
  %37 = tail call double @llvm.fmuladd.f64(double %36, double 1.055000e+00, double -5.500000e-02)
  br label %40

38:                                               ; preds = %33
  %39 = fmul double %19, 1.292000e+01
  br label %40

40:                                               ; preds = %38, %35
  %.0 = phi double [ %37, %35 ], [ %39, %38 ]
  %41 = fcmp olt double %.034, 0.000000e+00
  %42 = select i1 %41, double 0.000000e+00, double %.034
  %43 = fmul double %42, 2.550000e+02
  %44 = fcmp ogt double %43, 2.550000e+02
  %45 = select i1 %44, double 2.550000e+02, double %43
  %46 = fcmp olt double %.033, 0.000000e+00
  %47 = select i1 %46, double 0.000000e+00, double %.033
  %48 = fmul double %47, 2.550000e+02
  %49 = fcmp ogt double %48, 2.550000e+02
  %50 = select i1 %49, double 2.550000e+02, double %48
  %51 = fcmp olt double %.0, 0.000000e+00
  %52 = select i1 %51, double 0.000000e+00, double %.0
  %53 = fmul double %52, 2.550000e+02
  %54 = fcmp ogt double %53, 2.550000e+02
  %55 = select i1 %54, double 2.550000e+02, double %53
  store double %45, ptr %0, align 8, !tbaa !3, !alias.scope !36
  %56 = getelementptr inbounds nuw i8, ptr %0, i64 8
  store double %50, ptr %56, align 8, !tbaa !8, !alias.scope !36
  %57 = getelementptr inbounds nuw i8, ptr %0, i64 16
  store double %55, ptr %57, align 8, !tbaa !9, !alias.scope !36
  ret void
}